; Function Attrs: mustprogress uwtable
define void @_ZN2cv15line_descriptor16BinaryDescriptor6detectERKNS_3MatERSt6vectorINS0_7KeyLineESaIS6_EES4_(ptr noundef nonnull align 8 dereferenceable(192) %0, ptr noundef nonnull align 8 dereferenceable(96) %1, ptr noundef nonnull align 8 dereferenceable(24) %2, ptr noundef nonnull align 8 dereferenceable(96) %3) local_unnamed_addr #5 align 2 personality ptr @__gxx_personality_v0 {
  %5 = alloca %"class.std::__cxx11::basic_string", align 8
  %6 = alloca %"class.std::allocator.35", align 1
  %7 = getelementptr inbounds i8, ptr %1, i64 16
  %8 = load ptr, ptr %7, align 8
  %9 = icmp eq ptr %8, null
  br i1 %9, label %10, label %13

10:                                               ; preds = %4
  %11 = tail call noundef nonnull align 8 dereferenceable(8) ptr @_ZStlsISt11char_traitsIcEERSt13basic_ostreamIcT_ES5_PKc(ptr noundef nonnull align 8 dereferenceable(8) @_ZSt4cout, ptr noundef nonnull @.str.4)
  %12 = tail call noundef nonnull align 8 dereferenceable(8) ptr @_ZNSolsEPFRSoS_E(ptr noundef nonnull align 8 dereferenceable(8) %11, ptr noundef nonnull @_ZSt4endlIcSt11char_traitsIcEERSt13basic_ostreamIT_T0_ES6_)
  br label %42

13:                                               ; preds = %4
  %14 = getelementptr inbounds i8, ptr %3, i64 16
  %15 = load ptr, ptr %14, align 8
  %.not = icmp eq ptr %15, null
  br i1 %.not, label %.critedge, label %16

16:                                               ; preds = %13
  %17 = getelementptr inbounds i8, ptr %3, i64 64
  %18 = load ptr, ptr %17, align 8
  %19 = getelementptr inbounds i8, ptr %18, i64 4
  %20 = load i32, ptr %19, align 4
  %21 = load i32, ptr %18, align 4
  %22 = getelementptr inbounds i8, ptr %1, i64 64
  %23 = load ptr, ptr %22, align 8
  %24 = getelementptr inbounds i8, ptr %23, i64 4
  %25 = load i32, ptr %24, align 4
  %26 = load i32, ptr %23, align 4
  %27 = icmp ne i32 %20, %25
  %28 = icmp ne i32 %21, %26
  %.not6.i = select i1 %27, i1 true, i1 %28
  br i1 %.not6.i, label %.critedge2, label %29

29:                                               ; preds = %16
  %30 = load i32, ptr %3, align 8
  %31 = and i32 %30, 4095
  %.not13 = icmp eq i32 %31, 0
  br i1 %.not13, label %.critedge, label %.critedge2

.critedge2:                                       ; preds = %16, %29
  call void @_ZNSaIcEC1Ev(ptr noundef nonnull align 1 dereferenceable(1) %6) #23
  invoke void @_ZNSt7__cxx1112basic_stringIcSt11char_traitsIcESaIcEEC1EPKcRKS3_(ptr noundef nonnull align 8 dereferenceable(32) %5, ptr noundef nonnull @.str.5, ptr noundef nonnull align 1 dereferenceable(1) %6)
          to label %32 unwind label %34

32:                                               ; preds = %.critedge2
  invoke void @_ZN2cv5errorEiRKNSt7__cxx1112basic_stringIcSt11char_traitsIcESaIcEEEPKcS9_i(i32 noundef -5, ptr noundef nonnull align 8 dereferenceable(32) %5, ptr noundef nonnull @__func__._ZN2cv15line_descriptor16BinaryDescriptor6detectERKNS_3MatERSt6vectorINS0_7KeyLineESaIS6_EES4_, ptr noundef nonnull @.str.6, i32 noundef 419) #25
          to label %33 unwind label %36

33:                                               ; preds = %32
  unreachable

34:                                               ; preds = %.critedge2
  %35 = landingpad { ptr, i32 }
          cleanup
  br label %38

36:                                               ; preds = %32
  %37 = landingpad { ptr, i32 }
          cleanup
  call void @_ZNSt7__cxx1112basic_stringIcSt11char_traitsIcESaIcEED1Ev(ptr noundef nonnull align 8 dereferenceable(32) %5) #23
  br label %38

38:                                               ; preds = %36, %34
  %.pn = phi { ptr, i32 } [ %37, %36 ], [ %35, %34 ]
  call void @_ZNSaIcED1Ev(ptr noundef nonnull align 1 dereferenceable(1) %6) #23
  resume { ptr, i32 } %.pn

.critedge:                                        ; preds = %13, %29
  %39 = load ptr, ptr %0, align 8
  %40 = getelementptr inbounds i8, ptr %39, i64 72
  %41 = load ptr, ptr %40, align 8
  tail call void %41(ptr noundef nonnull align 8 dereferenceable(192) %0, ptr noundef nonnull align 8 dereferenceable(96) %1, ptr noundef nonnull align 8 dereferenceable(24) %2, ptr noundef nonnull align 8 dereferenceable(96) %3)
  br label %42

42:                                               ; preds = %.critedge, %10
  ret void
}